; Function Attrs: mustprogress nofree norecurse nosync nounwind willreturn memory(argmem: write) uwtable
define void @Abc_NtkSetDefaultFxParams(ptr noundef writeonly captures(none) initializes((0, 96)) %0) local_unnamed_addr #0 {
  %2 = getelementptr inbounds nuw i8, ptr %0, i64 16
  tail call void @llvm.memset.p0.i64(ptr noundef nonnull align 8 dereferenceable(96) %2, i8 0, i64 80, i1 false)
  %3 = getelementptr inbounds nuw i8, ptr %0, i64 28
  store i32 20000, ptr %3, align 4, !tbaa !3
  %4 = getelementptr inbounds nuw i8, ptr %0, i64 32
  store i32 30000, ptr %4, align 8, !tbaa !11
  %5 = getelementptr inbounds nuw i8, ptr %0, i64 24
  store i32 1000000, ptr %5, align 8, !tbaa !12
  %6 = getelementptr inbounds nuw i8, ptr %0, i64 40
  store i32 4, ptr %6, align 8, !tbaa !13
  store i32 0, ptr %0, align 8, !tbaa !14
  %7 = getelementptr inbounds nuw i8, ptr %0, i64 4
  store i32 0, ptr %7, align 4, !tbaa !15
  %8 = getelementptr inbounds nuw i8, ptr %0, i64 8
  store i32 0, ptr %8, align 8, !tbaa !16
  %9 = getelementptr inbounds nuw i8, ptr %0, i64 12
  store i32 1, ptr %9, align 4, !tbaa !17
  ret void
}